target datalayout = "e-m:e-p270:32:32-p271:32:32-p272:64:64-i64:64-i128:128-f80:128-n8:16:32:64-S128"
target triple = "x86_64-unknown-linux-gnu"

%"class.icu_75::UObject" = type { ptr }
%"class.icu_75::CollationBuilder" = type { %"class.icu_75::CollationRuleParser::Sink", ptr, ptr, ptr, ptr, ptr, %"class.icu_75::CollationRootElements", i32, ptr, i8, i8, [6 x i8], %"class.icu_75::UnicodeSet", ptr, [31 x i64], i32, %"class.icu_75::UVector32", %"class.icu_75::UVector64" }
%"class.icu_75::CollationRuleParser::Sink" = type { %"class.icu_75::UObject" }
%"class.icu_75::CollationRootElements" = type <{ ptr, i32, [4 x i8] }>
%"class.icu_75::UnicodeSet" = type <{ %"class.icu_75::UnicodeFilter", ptr, i32, i32, i8, [7 x i8], ptr, ptr, i32, [4 x i8], ptr, i32, [4 x i8], ptr, ptr, [25 x i32], [4 x i8] }>
%"class.icu_75::UnicodeFilter" = type { %"class.icu_75::UnicodeFunctor", %"class.icu_75::UnicodeMatcher" }
%"class.icu_75::UnicodeFunctor" = type { %"class.icu_75::UObject" }
%"class.icu_75::UnicodeMatcher" = type { ptr }
%"class.icu_75::UVector32" = type { %"class.icu_75::UObject", i32, i32, i32, ptr }
%"class.icu_75::UVector64" = type { %"class.icu_75::UObject", i32, i32, i32, ptr }

; Function Attrs: mustprogress nounwind uwtable
define internal noundef signext i8 @_ZL9U_SUCCESS10UErrorCode(i32 noundef %code) #3 {
entry:
  %code.addr = alloca i32, align 4
  store i32 %code, ptr %code.addr, align 4
  %0 = load i32, ptr %code.addr, align 4
  %cmp = icmp sle i32 %0, 0
  %conv = zext i1 %cmp to i8
  ret i8 %conv
}

; Function Attrs: mustprogress uwtable
define noundef signext i8 @_ZNK6icu_7516CollationBuilder5isFCDERKNS_13UnicodeStringER10UErrorCode(ptr noundef nonnull align 8 dereferenceable(616) %this, ptr noundef nonnull align 8 dereferenceable(64) %s, ptr noundef nonnull align 4 dereferenceable(4) %errorCode) #0 align 2 {
entry:
  %this.addr = alloca ptr, align 8
  %s.addr = alloca ptr, align 8
  %errorCode.addr = alloca ptr, align 8
  store ptr %this, ptr %this.addr, align 8
  store ptr %s, ptr %s.addr, align 8
  store ptr %errorCode, ptr %errorCode.addr, align 8
  %this1 = load ptr, ptr %this.addr, align 8
  %0 = load ptr, ptr %errorCode.addr, align 8
  %1 = load i32, ptr %0, align 4
  %call = call noundef signext i8 @_ZL9U_SUCCESS10UErrorCode(i32 noundef %1)
  %tobool = icmp ne i8 %call, 0
  br i1 %tobool, label %land.rhs, label %land.end

land.rhs:                                         ; preds = %entry
  %fcd = getelementptr inbounds %"class.icu_75::CollationBuilder", ptr %this1, i32 0, i32 2
  %2 = load ptr, ptr %fcd, align 8
  %3 = load ptr, ptr %s.addr, align 8
  %4 = load ptr, ptr %errorCode.addr, align 8
  %vtable = load ptr, ptr %2, align 8
  %vfn = getelementptr inbounds ptr, ptr %vtable, i64 11
  %5 = load ptr, ptr %vfn, align 8
  %call2 = call noundef signext i8 %5(ptr noundef nonnull align 8 dereferenceable(8) %2, ptr noundef nonnull align 8 dereferenceable(64) %3, ptr noundef nonnull align 4 dereferenceable(4) %4)
  %tobool3 = icmp ne i8 %call2, 0
  br label %land.end

land.end:                                         ; preds = %land.rhs, %entry
  %6 = phi i1 [ false, %entry ], [ %tobool3, %land.rhs ]
  %conv = zext i1 %6 to i8
  ret i8 %conv
}

; Function Attrs: mustprogress uwtable
define noundef signext i8 @_ZNK6icu_7516CollationBuilder12ignorePrefixERKNS_13UnicodeStringER10UErrorCode(ptr noundef nonnull align 8 dereferenceable(616) %this, ptr noundef nonnull align 8 dereferenceable(64) %s, ptr noundef nonnull align 4 dereferenceable(4) %errorCode) #0 align 2 {
entry:
  %this.addr = alloca ptr, align 8
  %s.addr = alloca ptr, align 8
  %errorCode.addr = alloca ptr, align 8
  store ptr %this, ptr %this.addr, align 8
  store ptr %s, ptr %s.addr, align 8
  store ptr %errorCode, ptr %errorCode.addr, align 8
  %this1 = load ptr, ptr %this.addr, align 8
  %0 = load ptr, ptr %s.addr, align 8
  %1 = load ptr, ptr %errorCode.addr, align 8
  %call = call noundef signext i8 @_ZNK6icu_7516CollationBuilder5isFCDERKNS_13UnicodeStringER10UErrorCode(ptr noundef nonnull align 8 dereferenceable(616) %this1, ptr noundef nonnull align 8 dereferenceable(64) %0, ptr noundef nonnull align 4 dereferenceable(4) %1)
  %tobool = icmp ne i8 %call, 0
  %lnot = xor i1 %tobool, true
  %conv = zext i1 %lnot to i8
  ret i8 %conv
}