; Function Attrs: mustprogress uwtable
define noundef signext i8 @_ZNK6icu_7516CollationBuilder12ignorePrefixERKNS_13UnicodeStringER10UErrorCode(ptr nocapture noundef nonnull readonly align 8 dereferenceable(616) %this, ptr noundef nonnull align 8 dereferenceable(64) %s, ptr noundef nonnull align 4 dereferenceable(4) %errorCode) local_unnamed_addr #0 align 2 {
entry:
  %0 = load i32, ptr %errorCode, align 4
  %cmp.i.i = icmp sgt i32 %0, 0
  br i1 %cmp.i.i, label %_ZNK6icu_7516CollationBuilder5isFCDERKNS_13UnicodeStringER10UErrorCode.exit, label %land.rhs.i

land.rhs.i:                                       ; preds = %entry
  %fcd.i = getelementptr inbounds i8, ptr %this, i64 16
  %1 = load ptr, ptr %fcd.i, align 8
  %vtable.i = load ptr, ptr %1, align 8
  %vfn.i = getelementptr inbounds i8, ptr %vtable.i, i64 88
  %2 = load ptr, ptr %vfn.i, align 8
  %call2.i = tail call noundef signext i8 %2(ptr noundef nonnull align 8 dereferenceable(8) %1, ptr noundef nonnull align 8 dereferenceable(64) %s, ptr noundef nonnull align 4 dereferenceable(4) %errorCode)
  %tobool3.i = icmp eq i8 %call2.i, 0
  %3 = zext i1 %tobool3.i to i8
  br label %_ZNK6icu_7516CollationBuilder5isFCDERKNS_13UnicodeStringER10UErrorCode.exit

_ZNK6icu_7516CollationBuilder5isFCDERKNS_13UnicodeStringER10UErrorCode.exit: ; preds = %entry, %land.rhs.i
  %conv.i = phi i8 [ 1, %entry ], [ %3, %land.rhs.i ]
  ret i8 %conv.i
}